; Function Attrs: mustprogress uwtable
define void @_ZN10OpenSubdiv6v3_6_03Vtr8internal10Refinement17subdivideTopologyERKNS3_9RelationsE(ptr noundef nonnull align 8 dereferenceable(504) %0, ptr nocapture noundef nonnull readonly align 4 dereferenceable(4) %1) local_unnamed_addr #7 align 2 {
  %3 = load i8, ptr %1, align 4
  %4 = and i8 %3, 1
  %.not = icmp eq i8 %4, 0
  br i1 %.not, label %9, label %5

5:                                                ; preds = %2
  %6 = load ptr, ptr %0, align 8
  %7 = getelementptr inbounds i8, ptr %6, i64 32
  %8 = load ptr, ptr %7, align 8
  tail call void %8(ptr noundef nonnull align 8 dereferenceable(504) %0)
  %.pre = load i8, ptr %1, align 4
  br label %9

9:                                                ; preds = %5, %2
  %10 = phi i8 [ %.pre, %5 ], [ %3, %2 ]
  %11 = and i8 %10, 2
  %.not7 = icmp eq i8 %11, 0
  br i1 %.not7, label %16, label %12

12:                                               ; preds = %9
  %13 = load ptr, ptr %0, align 8
  %14 = getelementptr inbounds i8, ptr %13, i64 40
  %15 = load ptr, ptr %14, align 8
  tail call void %15(ptr noundef nonnull align 8 dereferenceable(504) %0)
  %.pre28 = load i8, ptr %1, align 4
  br label %16

16:                                               ; preds = %12, %9
  %17 = phi i8 [ %.pre28, %12 ], [ %10, %9 ]
  %18 = and i8 %17, 4
  %.not8 = icmp eq i8 %18, 0
  br i1 %.not8, label %23, label %19

19:                                               ; preds = %16
  %20 = load ptr, ptr %0, align 8
  %21 = getelementptr inbounds i8, ptr %20, i64 48
  %22 = load ptr, ptr %21, align 8
  tail call void %22(ptr noundef nonnull align 8 dereferenceable(504) %0)
  %.pre29 = load i8, ptr %1, align 4
  br label %23

23:                                               ; preds = %19, %16
  %24 = phi i8 [ %.pre29, %19 ], [ %17, %16 ]
  %25 = and i8 %24, 8
  %.not9 = icmp eq i8 %25, 0
  br i1 %.not9, label %30, label %26

26:                                               ; preds = %23
  %27 = load ptr, ptr %0, align 8
  %28 = getelementptr inbounds i8, ptr %27, i64 56
  %29 = load ptr, ptr %28, align 8
  tail call void %29(ptr noundef nonnull align 8 dereferenceable(504) %0)
  %.pre30 = load i8, ptr %1, align 4
  br label %30

30:                                               ; preds = %26, %23
  %31 = phi i8 [ %.pre30, %26 ], [ %24, %23 ]
  %32 = and i8 %31, 16
  %.not10 = icmp eq i8 %32, 0
  br i1 %.not10, label %37, label %33

33:                                               ; preds = %30
  %34 = load ptr, ptr %0, align 8
  %35 = getelementptr inbounds i8, ptr %34, i64 64
  %36 = load ptr, ptr %35, align 8
  tail call void %36(ptr noundef nonnull align 8 dereferenceable(504) %0)
  %.pre31 = load i8, ptr %1, align 4
  br label %37

37:                                               ; preds = %33, %30
  %38 = phi i8 [ %.pre31, %33 ], [ %31, %30 ]
  %39 = and i8 %38, 32
  %.not11 = icmp eq i8 %39, 0
  br i1 %.not11, label %44, label %40

40:                                               ; preds = %37
  %41 = load ptr, ptr %0, align 8
  %42 = getelementptr inbounds i8, ptr %41, i64 72
  %43 = load ptr, ptr %42, align 8
  tail call void %43(ptr noundef nonnull align 8 dereferenceable(504) %0)
  br label %44

44:                                               ; preds = %40, %37
  %45 = getelementptr inbounds nuw i8, ptr %0, i64 28
  %46 = load i32, ptr %45, align 4
  %47 = icmp eq i32 %46, 0
  %48 = getelementptr inbounds nuw i8, ptr %0, i64 8
  %49 = load ptr, ptr %48, align 8
  %50 = getelementptr inbounds nuw i8, ptr %49, i64 20
  %51 = load i32, ptr %50, align 4
  %52 = getelementptr inbounds nuw i8, ptr %0, i64 16
  %53 = load ptr, ptr %52, align 8
  %54 = getelementptr inbounds nuw i8, ptr %53, i64 20
  br i1 %47, label %55, label %59

55:                                               ; preds = %44
  %.sroa.speculated25 = tail call i32 @llvm.smax.i32(i32 %51, i32 4)
  store i32 %.sroa.speculated25, ptr %54, align 4
  %56 = load ptr, ptr %48, align 8
  %57 = getelementptr inbounds nuw i8, ptr %56, i64 16
  %58 = load i32, ptr %57, align 8
  br label %64

59:                                               ; preds = %44
  %.sroa.speculated17 = tail call i32 @llvm.smax.i32(i32 %51, i32 6)
  store i32 %.sroa.speculated17, ptr %54, align 4
  %60 = load ptr, ptr %48, align 8
  %61 = getelementptr inbounds nuw i8, ptr %60, i64 16
  %62 = load i32, ptr %61, align 8
  %63 = shl nsw i32 %62, 1
  br label %64

64:                                               ; preds = %59, %55
  %.sink35 = phi i32 [ %63, %59 ], [ %58, %55 ]
  %.pn = load ptr, ptr %52, align 8
  %.sink34 = getelementptr inbounds nuw i8, ptr %.pn, i64 20
  %65 = add nsw i32 %.sink35, 2
  %66 = load i32, ptr %.sink34, align 4
  %.sroa.speculated = tail call i32 @llvm.smax.i32(i32 %66, i32 %65)
  store i32 %.sroa.speculated, ptr %.sink34, align 4
  ret void
}